target datalayout = "e-m:e-p270:32:32-p271:32:32-p272:64:64-i64:64-i128:128-f80:128-n8:16:32:64-S128"
target triple = "x86_64-pc-linux-gnu"

; Function Attrs: nounwind uwtable
define internal i32 @pg_wchar2mule_with_len(ptr noundef %0, ptr noundef %1, i32 noundef %2) #1 {
  %4 = alloca ptr, align 8
  %5 = alloca ptr, align 8
  %6 = alloca i32, align 4
  %7 = alloca i32, align 4
  %8 = alloca i8, align 1
  store ptr %0, ptr %4, align 8
  store ptr %1, ptr %5, align 8
  store i32 %2, ptr %6, align 4
  call void @llvm.lifetime.start.p0(i64 4, ptr %7) #7
  store i32 0, ptr %7, align 4
  br label %9

9:                                                ; preds = %186, %3
  %10 = load i32, ptr %6, align 4
  %11 = icmp sgt i32 %10, 0
  br i1 %11, label %12, label %16

12:                                               ; preds = %9
  %13 = load ptr, ptr %4, align 8
  %14 = load i32, ptr %13, align 4
  %15 = icmp ne i32 %14, 0
  br label %16

16:                                               ; preds = %12, %9
  %17 = phi i1 [ false, %9 ], [ %15, %12 ]
  br i1 %17, label %18, label %191

18:                                               ; preds = %16
  call void @llvm.lifetime.start.p0(i64 1, ptr %8) #7
  %19 = load ptr, ptr %4, align 8
  %20 = load i32, ptr %19, align 4
  %21 = lshr i32 %20, 16
  %22 = and i32 %21, 255
  %23 = trunc i32 %22 to i8
  store i8 %23, ptr %8, align 1
  %24 = load i8, ptr %8, align 1
  %25 = zext i8 %24 to i32
  %26 = icmp sge i32 %25, 129
  br i1 %26, label %27, label %43

27:                                               ; preds = %18
  %28 = load i8, ptr %8, align 1
  %29 = zext i8 %28 to i32
  %30 = icmp sle i32 %29, 141
  br i1 %30, label %31, label %43

31:                                               ; preds = %27
  %32 = load i8, ptr %8, align 1
  %33 = load ptr, ptr %5, align 8
  %34 = getelementptr inbounds nuw i8, ptr %33, i32 1
  store ptr %34, ptr %5, align 8
  store i8 %32, ptr %33, align 1
  %35 = load ptr, ptr %4, align 8
  %36 = load i32, ptr %35, align 4
  %37 = and i32 %36, 255
  %38 = trunc i32 %37 to i8
  %39 = load ptr, ptr %5, align 8
  %40 = getelementptr inbounds nuw i8, ptr %39, i32 1
  store ptr %40, ptr %5, align 8
  store i8 %38, ptr %39, align 1
  %41 = load i32, ptr %7, align 4
  %42 = add i32 %41, 2
  store i32 %42, ptr %7, align 4
  br label %186

43:                                               ; preds = %27, %18
  %44 = load i8, ptr %8, align 1
  %45 = zext i8 %44 to i32
  %46 = icmp sge i32 %45, 144
  br i1 %46, label %47, label %70

47:                                               ; preds = %43
  %48 = load i8, ptr %8, align 1
  %49 = zext i8 %48 to i32
  %50 = icmp sle i32 %49, 153
  br i1 %50, label %51, label %70

51:                                               ; preds = %47
  %52 = load i8, ptr %8, align 1
  %53 = load ptr, ptr %5, align 8
  %54 = getelementptr inbounds nuw i8, ptr %53, i32 1
  store ptr %54, ptr %5, align 8
  store i8 %52, ptr %53, align 1
  %55 = load ptr, ptr %4, align 8
  %56 = load i32, ptr %55, align 4
  %57 = lshr i32 %56, 8
  %58 = and i32 %57, 255
  %59 = trunc i32 %58 to i8
  %60 = load ptr, ptr %5, align 8
  %61 = getelementptr inbounds nuw i8, ptr %60, i32 1
  store ptr %61, ptr %5, align 8
  store i8 %59, ptr %60, align 1
  %62 = load ptr, ptr %4, align 8
  %63 = load i32, ptr %62, align 4
  %64 = and i32 %63, 255
  %65 = trunc i32 %64 to i8
  %66 = load ptr, ptr %5, align 8
  %67 = getelementptr inbounds nuw i8, ptr %66, i32 1
  store ptr %67, ptr %5, align 8
  store i8 %65, ptr %66, align 1
  %68 = load i32, ptr %7, align 4
  %69 = add i32 %68, 3
  store i32 %69, ptr %7, align 4
  br label %185

70:                                               ; preds = %47, %43
  %71 = load i8, ptr %8, align 1
  %72 = zext i8 %71 to i32
  %73 = icmp sge i32 %72, 160
  br i1 %73, label %74, label %92

74:                                               ; preds = %70
  %75 = load i8, ptr %8, align 1
  %76 = zext i8 %75 to i32
  %77 = icmp sle i32 %76, 223
  br i1 %77, label %78, label %92

78:                                               ; preds = %74
  %79 = load ptr, ptr %5, align 8
  %80 = getelementptr inbounds nuw i8, ptr %79, i32 1
  store ptr %80, ptr %5, align 8
  store i8 -102, ptr %79, align 1
  %81 = load i8, ptr %8, align 1
  %82 = load ptr, ptr %5, align 8
  %83 = getelementptr inbounds nuw i8, ptr %82, i32 1
  store ptr %83, ptr %5, align 8
  store i8 %81, ptr %82, align 1
  %84 = load ptr, ptr %4, align 8
  %85 = load i32, ptr %84, align 4
  %86 = and i32 %85, 255
  %87 = trunc i32 %86 to i8
  %88 = load ptr, ptr %5, align 8
  %89 = getelementptr inbounds nuw i8, ptr %88, i32 1
  store ptr %89, ptr %5, align 8
  store i8 %87, ptr %88, align 1
  %90 = load i32, ptr %7, align 4
  %91 = add i32 %90, 3
  store i32 %91, ptr %7, align 4
  br label %184

92:                                               ; preds = %74, %70
  %93 = load i8, ptr %8, align 1
  %94 = zext i8 %93 to i32
  %95 = icmp sge i32 %94, 224
  br i1 %95, label %96, label %114

96:                                               ; preds = %92
  %97 = load i8, ptr %8, align 1
  %98 = zext i8 %97 to i32
  %99 = icmp sle i32 %98, 239
  br i1 %99, label %100, label %114

100:                                              ; preds = %96
  %101 = load ptr, ptr %5, align 8
  %102 = getelementptr inbounds nuw i8, ptr %101, i32 1
  store ptr %102, ptr %5, align 8
  store i8 -101, ptr %101, align 1
  %103 = load i8, ptr %8, align 1
  %104 = load ptr, ptr %5, align 8
  %105 = getelementptr inbounds nuw i8, ptr %104, i32 1
  store ptr %105, ptr %5, align 8
  store i8 %103, ptr %104, align 1
  %106 = load ptr, ptr %4, align 8
  %107 = load i32, ptr %106, align 4
  %108 = and i32 %107, 255
  %109 = trunc i32 %108 to i8
  %110 = load ptr, ptr %5, align 8
  %111 = getelementptr inbounds nuw i8, ptr %110, i32 1
  store ptr %111, ptr %5, align 8
  store i8 %109, ptr %110, align 1
  %112 = load i32, ptr %7, align 4
  %113 = add i32 %112, 3
  store i32 %113, ptr %7, align 4
  br label %183

114:                                              ; preds = %96, %92
  %115 = load i8, ptr %8, align 1
  %116 = zext i8 %115 to i32
  %117 = icmp sge i32 %116, 240
  br i1 %117, label %118, label %143

118:                                              ; preds = %114
  %119 = load i8, ptr %8, align 1
  %120 = zext i8 %119 to i32
  %121 = icmp sle i32 %120, 244
  br i1 %121, label %122, label %143

122:                                              ; preds = %118
  %123 = load ptr, ptr %5, align 8
  %124 = getelementptr inbounds nuw i8, ptr %123, i32 1
  store ptr %124, ptr %5, align 8
  store i8 -100, ptr %123, align 1
  %125 = load i8, ptr %8, align 1
  %126 = load ptr, ptr %5, align 8
  %127 = getelementptr inbounds nuw i8, ptr %126, i32 1
  store ptr %127, ptr %5, align 8
  store i8 %125, ptr %126, align 1
  %128 = load ptr, ptr %4, align 8
  %129 = load i32, ptr %128, align 4
  %130 = lshr i32 %129, 8
  %131 = and i32 %130, 255
  %132 = trunc i32 %131 to i8
  %133 = load ptr, ptr %5, align 8
  %134 = getelementptr inbounds nuw i8, ptr %133, i32 1
  store ptr %134, ptr %5, align 8
  store i8 %132, ptr %133, align 1
  %135 = load ptr, ptr %4, align 8
  %136 = load i32, ptr %135, align 4
  %137 = and i32 %136, 255
  %138 = trunc i32 %137 to i8
  %139 = load ptr, ptr %5, align 8
  %140 = getelementptr inbounds nuw i8, ptr %139, i32 1
  store ptr %140, ptr %5, align 8
  store i8 %138, ptr %139, align 1
  %141 = load i32, ptr %7, align 4
  %142 = add i32 %141, 4
  store i32 %142, ptr %7, align 4
  br label %182

143:                                              ; preds = %118, %114
  %144 = load i8, ptr %8, align 1
  %145 = zext i8 %144 to i32
  %146 = icmp sge i32 %145, 245
  br i1 %146, label %147, label %172

147:                                              ; preds = %143
  %148 = load i8, ptr %8, align 1
  %149 = zext i8 %148 to i32
  %150 = icmp sle i32 %149, 254
  br i1 %150, label %151, label %172

151:                                              ; preds = %147
  %152 = load ptr, ptr %5, align 8
  %153 = getelementptr inbounds nuw i8, ptr %152, i32 1
  store ptr %153, ptr %5, align 8
  store i8 -99, ptr %152, align 1
  %154 = load i8, ptr %8, align 1
  %155 = load ptr, ptr %5, align 8
  %156 = getelementptr inbounds nuw i8, ptr %155, i32 1
  store ptr %156, ptr %5, align 8
  store i8 %154, ptr %155, align 1
  %157 = load ptr, ptr %4, align 8
  %158 = load i32, ptr %157, align 4
  %159 = lshr i32 %158, 8
  %160 = and i32 %159, 255
  %161 = trunc i32 %160 to i8
  %162 = load ptr, ptr %5, align 8
  %163 = getelementptr inbounds nuw i8, ptr %162, i32 1
  store ptr %163, ptr %5, align 8
  store i8 %161, ptr %162, align 1
  %164 = load ptr, ptr %4, align 8
  %165 = load i32, ptr %164, align 4
  %166 = and i32 %165, 255
  %167 = trunc i32 %166 to i8
  %168 = load ptr, ptr %5, align 8
  %169 = getelementptr inbounds nuw i8, ptr %168, i32 1
  store ptr %169, ptr %5, align 8
  store i8 %167, ptr %168, align 1
  %170 = load i32, ptr %7, align 4
  %171 = add i32 %170, 4
  store i32 %171, ptr %7, align 4
  br label %181

172:                                              ; preds = %147, %143
  %173 = load ptr, ptr %4, align 8
  %174 = load i32, ptr %173, align 4
  %175 = and i32 %174, 255
  %176 = trunc i32 %175 to i8
  %177 = load ptr, ptr %5, align 8
  %178 = getelementptr inbounds nuw i8, ptr %177, i32 1
  store ptr %178, ptr %5, align 8
  store i8 %176, ptr %177, align 1
  %179 = load i32, ptr %7, align 4
  %180 = add i32 %179, 1
  store i32 %180, ptr %7, align 4
  br label %181

181:                                              ; preds = %172, %151
  br label %182

182:                                              ; preds = %181, %122
  br label %183

183:                                              ; preds = %182, %100
  br label %184

184:                                              ; preds = %183, %78
  br label %185

185:                                              ; preds = %184, %51
  br label %186

186:                                              ; preds = %185, %31
  %187 = load ptr, ptr %4, align 8
  %188 = getelementptr inbounds nuw i32, ptr %187, i32 1
  store ptr %188, ptr %4, align 8
  %189 = load i32, ptr %6, align 4
  %190 = add i32 %189, -1
  store i32 %190, ptr %6, align 4
  call void @llvm.lifetime.end.p0(i64 1, ptr %8) #7
  br label %9, !llvm.loop !19

191:                                              ; preds = %16
  %192 = load ptr, ptr %5, align 8
  store i8 0, ptr %192, align 1
  %193 = load i32, ptr %7, align 4
  call void @llvm.lifetime.end.p0(i64 4, ptr %7) #7
  ret i32 %193
}