; Function Attrs: nofree norecurse nosync nounwind memory(argmem: readwrite) uwtable
define internal i32 @pg_wchar2mule_with_len(ptr noundef readonly captures(none) %0, ptr noundef writeonly captures(none) %1, i32 noundef %2) #2 {
  %4 = icmp sgt i32 %2, 0
  br i1 %4, label %.lr.ph, label %.critedge

.lr.ph:                                           ; preds = %3, %71
  %.086 = phi ptr [ %73, %71 ], [ %0, %3 ]
  %.07885 = phi i32 [ %72, %71 ], [ 0, %3 ]
  %.07984 = phi i32 [ %74, %71 ], [ %2, %3 ]
  %.08083 = phi ptr [ %.181, %71 ], [ %1, %3 ]
  %5 = load i32, ptr %.086, align 4
  %.not = icmp eq i32 %5, 0
  br i1 %.not, label %.critedge, label %6

6:                                                ; preds = %.lr.ph
  %7 = lshr i32 %5, 16
  %8 = trunc i32 %7 to i8
  %9 = and i32 %7, 255
  %10 = add nsw i32 %9, -129
  %or.cond = icmp ult i32 %10, 13
  br i1 %or.cond, label %11, label %16

11:                                               ; preds = %6
  %12 = getelementptr inbounds nuw i8, ptr %.08083, i64 1
  store i8 %8, ptr %.08083, align 1
  %13 = load i32, ptr %.086, align 4
  %14 = trunc i32 %13 to i8
  %15 = getelementptr inbounds nuw i8, ptr %.08083, i64 2
  store i8 %14, ptr %12, align 1
  br label %71

16:                                               ; preds = %6
  %17 = add nsw i32 %9, -144
  %or.cond5 = icmp ult i32 %17, 10
  br i1 %or.cond5, label %18, label %27

18:                                               ; preds = %16
  %19 = getelementptr inbounds nuw i8, ptr %.08083, i64 1
  store i8 %8, ptr %.08083, align 1
  %20 = load i32, ptr %.086, align 4
  %21 = lshr i32 %20, 8
  %22 = trunc i32 %21 to i8
  %23 = getelementptr inbounds nuw i8, ptr %.08083, i64 2
  store i8 %22, ptr %19, align 1
  %24 = load i32, ptr %.086, align 4
  %25 = trunc i32 %24 to i8
  %26 = getelementptr inbounds nuw i8, ptr %.08083, i64 3
  store i8 %25, ptr %23, align 1
  br label %71

27:                                               ; preds = %16
  %28 = add nsw i32 %9, -160
  %or.cond8 = icmp ult i32 %28, 64
  br i1 %or.cond8, label %29, label %35

29:                                               ; preds = %27
  %30 = getelementptr inbounds nuw i8, ptr %.08083, i64 1
  store i8 -102, ptr %.08083, align 1
  %31 = getelementptr inbounds nuw i8, ptr %.08083, i64 2
  store i8 %8, ptr %30, align 1
  %32 = load i32, ptr %.086, align 4
  %33 = trunc i32 %32 to i8
  %34 = getelementptr inbounds nuw i8, ptr %.08083, i64 3
  store i8 %33, ptr %31, align 1
  br label %71

35:                                               ; preds = %27
  %36 = and i32 %5, 15728640
  %or.cond11 = icmp eq i32 %36, 14680064
  br i1 %or.cond11, label %37, label %43

37:                                               ; preds = %35
  %38 = getelementptr inbounds nuw i8, ptr %.08083, i64 1
  store i8 -101, ptr %.08083, align 1
  %39 = getelementptr inbounds nuw i8, ptr %.08083, i64 2
  store i8 %8, ptr %38, align 1
  %40 = load i32, ptr %.086, align 4
  %41 = trunc i32 %40 to i8
  %42 = getelementptr inbounds nuw i8, ptr %.08083, i64 3
  store i8 %41, ptr %39, align 1
  br label %71

43:                                               ; preds = %35
  %44 = add nsw i32 %9, -240
  %or.cond14 = icmp ult i32 %44, 5
  br i1 %or.cond14, label %45, label %55

45:                                               ; preds = %43
  %46 = getelementptr inbounds nuw i8, ptr %.08083, i64 1
  store i8 -100, ptr %.08083, align 1
  %47 = getelementptr inbounds nuw i8, ptr %.08083, i64 2
  store i8 %8, ptr %46, align 1
  %48 = load i32, ptr %.086, align 4
  %49 = lshr i32 %48, 8
  %50 = trunc i32 %49 to i8
  %51 = getelementptr inbounds nuw i8, ptr %.08083, i64 3
  store i8 %50, ptr %47, align 1
  %52 = load i32, ptr %.086, align 4
  %53 = trunc i32 %52 to i8
  %54 = getelementptr inbounds nuw i8, ptr %.08083, i64 4
  store i8 %53, ptr %51, align 1
  br label %71

55:                                               ; preds = %43
  %56 = icmp samesign ugt i32 %9, 244
  %57 = icmp ne i32 %9, 255
  %or.cond17 = and i1 %56, %57
  br i1 %or.cond17, label %58, label %68

58:                                               ; preds = %55
  %59 = getelementptr inbounds nuw i8, ptr %.08083, i64 1
  store i8 -99, ptr %.08083, align 1
  %60 = getelementptr inbounds nuw i8, ptr %.08083, i64 2
  store i8 %8, ptr %59, align 1
  %61 = load i32, ptr %.086, align 4
  %62 = lshr i32 %61, 8
  %63 = trunc i32 %62 to i8
  %64 = getelementptr inbounds nuw i8, ptr %.08083, i64 3
  store i8 %63, ptr %60, align 1
  %65 = load i32, ptr %.086, align 4
  %66 = trunc i32 %65 to i8
  %67 = getelementptr inbounds nuw i8, ptr %.08083, i64 4
  store i8 %66, ptr %64, align 1
  br label %71

68:                                               ; preds = %55
  %69 = trunc i32 %5 to i8
  %70 = getelementptr inbounds nuw i8, ptr %.08083, i64 1
  store i8 %69, ptr %.08083, align 1
  br label %71

71:                                               ; preds = %18, %37, %58, %68, %45, %29, %11
  %.sink = phi i32 [ 3, %18 ], [ 3, %37 ], [ 4, %58 ], [ 1, %68 ], [ 4, %45 ], [ 3, %29 ], [ 2, %11 ]
  %.181 = phi ptr [ %26, %18 ], [ %42, %37 ], [ %67, %58 ], [ %70, %68 ], [ %54, %45 ], [ %34, %29 ], [ %15, %11 ]
  %72 = add i32 %.07885, %.sink
  %73 = getelementptr inbounds nuw i8, ptr %.086, i64 4
  %74 = add nsw i32 %.07984, -1
  %75 = icmp sgt i32 %.07984, 1
  br i1 %75, label %.lr.ph, label %.critedge, !llvm.loop !19

.critedge:                                        ; preds = %.lr.ph, %71, %3
  %.080.lcssa = phi ptr [ %1, %3 ], [ %.181, %71 ], [ %.08083, %.lr.ph ]
  %.078.lcssa = phi i32 [ 0, %3 ], [ %72, %71 ], [ %.07885, %.lr.ph ]
  store i8 0, ptr %.080.lcssa, align 1
  ret i32 %.078.lcssa
}